(lp1
(lp2
I338
aI173
aI0
aI0
aa(lp3
I262
aI120
aI0
aI0
aa(lp4
I461
aI222
aI0
aI0
aa(lp5
I611
aI264
aI0
aI0
aa(lp6
I374
aI141
aI0
aI0
aa(lp7
I486
aI191
aI0
aI0
aa(lp8
I326
aI113
aI0
aI0
aa(lp9
I431
aI162
aI0
aI0
aa(lp10
I451
aI178
aI0
aI0
aa(lp11
I544
aI217
aI0
aI0
aa(lp12
I418
aI150
aI0
aI0
aa(lp13
I221
aI67
aI0
aI0
aa(lp14
I363
aI139
aI0
aI0
aa(lp15
I331
aI131
aI0
aI0
aa(lp16
I483
aI204
aI0
aI0
aa(lp17
I310
aI118
aI0
aI0
aa(lp18
I267
aI85
aI0
aI0
aa(lp19
I261
aI96
aI0
aI0
aa(lp20
I417
aI176
aI0
aI0
aa(lp21
I631
aI237
aI0
aI0
aa(lp22
I303
aI119
aI0
aI0
aa(lp23
I223
aI86
aI0
aI0
aa(lp24
I306
aI86
aI0
aI0
aa(lp25
I190
aI71
aI0
aI0
aa(lp26
I744
aI282
aI0
aI0
aa(lp27
I431
aI8
aI0
aI0
aa(lp28
I545
aI48
aI0
aI0
aa(lp29
I817
aI59
aI0
aI3
aa(lp30
I482
aI0
aI0
aI0
aa.